; Function Attrs: nounwind uwtable
define hidden void @X11_SendWakeupEvent(ptr noundef readonly captures(none) %0, ptr noundef readonly captures(none) %1) local_unnamed_addr #1 {
  %3 = alloca %struct.XClientMessageEvent, align 8
  %4 = getelementptr inbounds nuw i8, ptr %0, i64 1656
  %5 = load ptr, ptr %4, align 8
  %6 = getelementptr inbounds nuw i8, ptr %5, i64 8
  %7 = load ptr, ptr %6, align 8
  %8 = getelementptr inbounds nuw i8, ptr %1, i64 392
  %9 = load ptr, ptr %8, align 8
  %10 = getelementptr inbounds nuw i8, ptr %9, i64 8
  %11 = load i64, ptr %10, align 8
  call void @llvm.lifetime.start.p0(i64 96, ptr nonnull %3) #12
  call void @llvm.memset.p0.i64(ptr noundef nonnull align 8 dereferenceable(96) %3, i8 0, i64 96, i1 false)
  store i32 33, ptr %3, align 8
  %12 = getelementptr inbounds nuw i8, ptr %3, i64 24
  store ptr %7, ptr %12, align 8
  %13 = getelementptr inbounds nuw i8, ptr %3, i64 16
  store i32 1, ptr %13, align 8
  %14 = getelementptr inbounds nuw i8, ptr %5, i64 416
  %15 = load i64, ptr %14, align 8
  %16 = getelementptr inbounds nuw i8, ptr %3, i64 40
  store i64 %15, ptr %16, align 8
  %17 = getelementptr inbounds nuw i8, ptr %3, i64 48
  store i32 8, ptr %17, align 8
  %18 = load ptr, ptr @X11_XSendEvent, align 8
  %19 = call i32 %18(ptr noundef %7, i64 noundef %11, i32 noundef 0, i64 noundef 0, ptr noundef nonnull %3) #12
  %20 = load ptr, ptr @X11_XFlush, align 8
  %21 = call i32 %20(ptr noundef %7) #12
  call void @llvm.lifetime.end.p0(i64 96, ptr nonnull %3) #12
  ret void
}